cnumpy.core.multiarray
_reconstruct
p1
(cnumpy
ndarray
p2
(I0
tS'b'
tRp3
(I1
(I463
tcnumpy
dtype
p4
(S'S18'
I0
I1
tRp5
(I3
S'|'
NNNI18
I1
I0
tbI00
S'p_0003_192_256.bmpp_0004_160_256.bmpp_0004_192_224.bmpp_0004_192_256.bmpp_0004_320_224.bmpp_0004_320_256.bmpp_0005_160_224.bmpp_0005_160_256.bmpp_0005_160_288.bmpp_0005_192_224.bmpp_0005_192_256.bmpp_0005_192_288.bmpp_0005_224_224.bmpp_0005_288_224.bmpp_0005_320_224.bmpp_0005_320_256.bmpp_0006_160_224.bmpp_0006_160_256.bmpp_0006_160_288.bmpp_0006_192_224.bmpp_0006_192_256.bmpp_0006_192_288.bmpp_0006_224_224.bmpp_0006_224_256.bmpp_0006_288_224.bmpp_0006_320_224.bmpp_0006_320_256.bmpp_0006_320_288.bmpp_0006_352_224.bmpp_0006_352_256.bmpp_0007_128_256.bmpp_0007_160_224.bmpp_0007_160_256.bmpp_0007_160_288.bmpp_0007_192_192.bmpp_0007_192_224.bmpp_0007_192_256.bmpp_0007_192_288.bmpp_0007_224_224.bmpp_0007_224_256.bmpp_0007_320_192.bmpp_0007_320_224.bmpp_0007_320_256.bmpp_0007_320_288.bmpp_0007_352_224.bmpp_0007_352_256.bmpp_0007_352_288.bmpp_0008_128_224.bmpp_0008_128_256.bmpp_0008_160_192.bmpp_0008_160_224.bmpp_0008_160_256.bmpp_0008_160_288.bmpp_0008_160_320.bmpp_0008_192_192.bmpp_0008_192_224.bmpp_0008_192_256.bmpp_0008_192_288.bmpp_0008_224_224.bmpp_0008_224_256.bmpp_0008_320_192.bmpp_0008_320_224.bmpp_0008_320_256.bmpp_0008_320_288.bmpp_0008_320_320.bmpp_0008_352_224.bmpp_0008_352_256.bmpp_0008_352_288.bmpp_0009_128_224.bmpp_0009_128_256.bmpp_0009_128_288.bmpp_0009_160_192.bmpp_0009_160_224.bmpp_0009_160_256.bmpp_0009_160_288.bmpp_0009_160_320.bmpp_0009_192_192.bmpp_0009_192_224.bmpp_0009_192_256.bmpp_0009_192_288.bmpp_0009_192_320.bmpp_0009_224_224.bmpp_0009_224_256.bmpp_0009_320_192.bmpp_0009_320_224.bmpp_0009_320_256.bmpp_0009_320_288.bmpp_0009_320_320.bmpp_0009_352_224.bmpp_0009_352_256.bmpp_0009_352_288.bmpp_0010_128_224.bmpp_0010_128_256.bmpp_0010_128_288.bmpp_0010_160_192.bmpp_0010_160_224.bmpp_0010_160_256.bmpp_0010_160_288.bmpp_0010_160_320.bmpp_0010_192_192.bmpp_0010_192_224.bmpp_0010_192_256.bmpp_0010_192_288.bmpp_0010_192_320.bmpp_0010_224_256.bmpp_0010_320_160.bmpp_0010_320_192.bmpp_0010_320_224.bmpp_0010_320_256.bmpp_0010_320_288.bmpp_0010_320_320.bmpp_0010_352_192.bmpp_0010_352_224.bmpp_0010_352_256.bmpp_0010_352_288.bmpp_0010_352_320.bmpp_0011_128_224.bmpp_0011_128_256.bmpp_0011_128_288.bmpp_0011_160_192.bmpp_0011_160_224.bmpp_0011_160_256.bmpp_0011_160_288.bmpp_0011_160_320.bmpp_0011_192_160.bmpp_0011_192_192.bmpp_0011_192_224.bmpp_0011_192_256.bmpp_0011_192_288.bmpp_0011_192_320.bmpp_0011_224_288.bmpp_0011_288_160.bmpp_0011_288_192.bmpp_0011_288_224.bmpp_0011_320_160.bmpp_0011_320_192.bmpp_0011_320_224.bmpp_0011_320_256.bmpp_0011_320_288.bmpp_0011_320_320.bmpp_0011_352_192.bmpp_0011_352_224.bmpp_0011_352_256.bmpp_0011_352_288.bmpp_0011_352_320.bmpp_0011_384_256.bmpp_0012_128_224.bmpp_0012_128_256.bmpp_0012_128_288.bmpp_0012_128_320.bmpp_0012_160_160.bmpp_0012_160_192.bmpp_0012_160_224.bmpp_0012_160_256.bmpp_0012_160_288.bmpp_0012_160_320.bmpp_0012_192_160.bmpp_0012_192_192.bmpp_0012_192_224.bmpp_0012_192_256.bmpp_0012_192_288.bmpp_0012_192_320.bmpp_0012_224_256.bmpp_0012_224_288.bmpp_0012_288_160.bmpp_0012_288_192.bmpp_0012_320_160.bmpp_0012_320_192.bmpp_0012_320_224.bmpp_0012_320_256.bmpp_0012_320_288.bmpp_0012_320_320.bmpp_0012_352_192.bmpp_0012_352_224.bmpp_0012_352_256.bmpp_0012_352_288.bmpp_0012_352_320.bmpp_0012_384_256.bmpp_0013_128_192.bmpp_0013_128_224.bmpp_0013_128_256.bmpp_0013_128_288.bmpp_0013_128_320.bmpp_0013_160_160.bmpp_0013_160_192.bmpp_0013_160_224.bmpp_0013_160_256.bmpp_0013_160_288.bmpp_0013_160_320.bmpp_0013_192_160.bmpp_0013_192_288.bmpp_0013_192_320.bmpp_0013_224_256.bmpp_0013_224_288.bmpp_0013_256_160.bmpp_0013_288_160.bmpp_0013_288_192.bmpp_0013_320_160.bmpp_0013_320_192.bmpp_0013_320_224.bmpp_0013_320_320.bmpp_0013_320_352.bmpp_0013_352_192.bmpp_0013_352_224.bmpp_0013_352_256.bmpp_0013_352_288.bmpp_0013_352_320.bmpp_0013_384_224.bmpp_0013_384_256.bmpp_0014_128_192.bmpp_0014_128_224.bmpp_0014_128_256.bmpp_0014_128_288.bmpp_0014_128_320.bmpp_0014_160_160.bmpp_0014_160_192.bmpp_0014_160_224.bmpp_0014_160_256.bmpp_0014_160_288.bmpp_0014_160_320.bmpp_0014_160_352.bmpp_0014_192_160.bmpp_0014_192_288.bmpp_0014_192_320.bmpp_0014_224_288.bmpp_0014_288_160.bmpp_0014_288_192.bmpp_0014_320_160.bmpp_0014_320_192.bmpp_0014_320_224.bmpp_0014_320_288.bmpp_0014_320_320.bmpp_0014_320_352.bmpp_0014_352_192.bmpp_0014_352_224.bmpp_0014_352_256.bmpp_0014_352_288.bmpp_0014_352_320.bmpp_0014_384_224.bmpp_0014_384_256.bmpp_0014_384_288.bmpp_0015_128_192.bmpp_0015_128_224.bmpp_0015_128_256.bmpp_0015_128_288.bmpp_0015_128_320.bmpp_0015_160_160.bmpp_0015_160_192.bmpp_0015_160_224.bmpp_0015_160_288.bmpp_0015_160_320.bmpp_0015_160_352.bmpp_0015_192_160.bmpp_0015_192_320.bmpp_0015_224_288.bmpp_0015_288_128.bmpp_0015_288_160.bmpp_0015_288_192.bmpp_0015_288_320.bmpp_0015_320_160.bmpp_0015_320_192.bmpp_0015_320_224.bmpp_0015_320_320.bmpp_0015_320_352.bmpp_0015_352_192.bmpp_0015_352_224.bmpp_0015_352_256.bmpp_0015_352_288.bmpp_0015_352_320.bmpp_0015_352_352.bmpp_0015_384_224.bmpp_0015_384_256.bmpp_0015_384_288.bmpp_0016_128_192.bmpp_0016_128_224.bmpp_0016_128_256.bmpp_0016_128_288.bmpp_0016_128_320.bmpp_0016_160_160.bmpp_0016_160_192.bmpp_0016_160_224.bmpp_0016_160_288.bmpp_0016_160_320.bmpp_0016_160_352.bmpp_0016_192_160.bmpp_0016_192_288.bmpp_0016_192_320.bmpp_0016_192_352.bmpp_0016_224_288.bmpp_0016_288_160.bmpp_0016_288_192.bmpp_0016_288_320.bmpp_0016_320_160.bmpp_0016_320_192.bmpp_0016_320_224.bmpp_0016_320_256.bmpp_0016_320_288.bmpp_0016_320_320.bmpp_0016_320_352.bmpp_0016_352_192.bmpp_0016_352_224.bmpp_0016_352_256.bmpp_0016_352_288.bmpp_0016_352_320.bmpp_0016_352_352.bmpp_0016_384_224.bmpp_0016_384_256.bmpp_0016_384_288.bmpp_0017_128_192.bmpp_0017_128_224.bmpp_0017_128_256.bmpp_0017_128_288.bmpp_0017_128_320.bmpp_0017_160_160.bmpp_0017_160_192.bmpp_0017_160_224.bmpp_0017_160_256.bmpp_0017_160_288.bmpp_0017_160_320.bmpp_0017_160_352.bmpp_0017_192_160.bmpp_0017_192_288.bmpp_0017_192_320.bmpp_0017_192_352.bmpp_0017_224_288.bmpp_0017_288_160.bmpp_0017_288_320.bmpp_0017_320_160.bmpp_0017_320_192.bmpp_0017_320_224.bmpp_0017_320_256.bmpp_0017_320_288.bmpp_0017_320_320.bmpp_0017_320_352.bmpp_0017_352_192.bmpp_0017_352_224.bmpp_0017_352_256.bmpp_0017_352_288.bmpp_0017_352_320.bmpp_0017_352_352.bmpp_0017_384_224.bmpp_0017_384_256.bmpp_0017_384_288.bmpp_0018_128_192.bmpp_0018_128_224.bmpp_0018_128_256.bmpp_0018_128_288.bmpp_0018_128_320.bmpp_0018_160_160.bmpp_0018_160_192.bmpp_0018_160_224.bmpp_0018_160_256.bmpp_0018_160_288.bmpp_0018_160_320.bmpp_0018_160_352.bmpp_0018_192_160.bmpp_0018_192_288.bmpp_0018_192_320.bmpp_0018_192_352.bmpp_0018_288_160.bmpp_0018_288_288.bmpp_0018_288_320.bmpp_0018_320_160.bmpp_0018_320_192.bmpp_0018_320_224.bmpp_0018_320_256.bmpp_0018_320_288.bmpp_0018_320_320.bmpp_0018_320_352.bmpp_0018_352_160.bmpp_0018_352_192.bmpp_0018_352_224.bmpp_0018_352_256.bmpp_0018_352_288.bmpp_0018_352_320.bmpp_0018_352_352.bmpp_0018_384_224.bmpp_0018_384_256.bmpp_0018_384_288.bmpp_0019_128_192.bmpp_0019_128_224.bmpp_0019_128_256.bmpp_0019_128_288.bmpp_0019_128_320.bmpp_0019_128_352.bmpp_0019_160_160.bmpp_0019_160_192.bmpp_0019_160_224.bmpp_0019_160_256.bmpp_0019_160_288.bmpp_0019_160_320.bmpp_0019_160_352.bmpp_0019_192_160.bmpp_0019_192_288.bmpp_0019_192_320.bmpp_0019_192_352.bmpp_0019_288_288.bmpp_0019_288_320.bmpp_0019_320_160.bmpp_0019_320_192.bmpp_0019_320_224.bmpp_0019_320_256.bmpp_0019_320_288.bmpp_0019_320_320.bmpp_0019_320_352.bmpp_0019_352_160.bmpp_0019_352_192.bmpp_0019_352_224.bmpp_0019_352_256.bmpp_0019_352_288.bmpp_0019_352_320.bmpp_0019_352_352.bmpp_0019_384_224.bmpp_0019_384_256.bmpp_0019_384_288.bmpp_0019_96_224.bmp\x00p_0019_96_256.bmp\x00p_0020_128_160.bmpp_0020_128_192.bmpp_0020_128_224.bmpp_0020_128_256.bmpp_0020_160_160.bmpp_0020_160_192.bmpp_0020_160_224.bmpp_0020_160_256.bmpp_0020_192_288.bmpp_0020_288_288.bmpp_0020_320_160.bmpp_0020_320_256.bmpp_0020_352_160.bmpp_0020_352_192.bmpp_0020_352_224.bmpp_0020_352_256.bmpp_0020_384_224.bmpp_0020_384_256.bmpp_0020_96_224.bmp\x00p_0020_96_256.bmp\x00p_0021_128_160.bmpp_0021_128_192.bmpp_0021_160_160.bmpp_0021_160_192.bmpp_0021_160_224.bmpp_0021_320_160.bmpp_0021_352_192.bmpp_0021_352_224.bmpp_0021_384_224.bmpp_0021_96_224.bmp\x00p_0022_128_160.bmpp_0022_128_192.bmpp_0022_160_160.bmpp_0022_160_192.bmpp_0022_160_224.bmpp_0022_352_192.bmpp_0022_352_224.bmpp_0022_384_224.bmpp_0022_96_224.bmp\x00p_0023_128_160.bmpp_0023_128_192.bmpp_0023_160_160.bmpp_0023_160_192.bmpp_0023_96_224.bmp\x00p_0024_128_160.bmpp_0024_160_160.bmp'
tb.