cnumpy.core.multiarray
_reconstruct
p1
(cnumpy
ndarray
p2
(I0
tS'b'
tRp3
(I1
(I640
tcnumpy
dtype
p4
(S'S18'
I0
I1
tRp5
(I3
S'|'
NNNI18
I1
I0
tbI00
S'p_0001_192_288.bmpp_0002_160_288.bmpp_0002_192_256.bmpp_0002_192_288.bmpp_0002_192_320.bmpp_0002_320_288.bmpp_0003_160_256.bmpp_0003_160_288.bmpp_0003_160_320.bmpp_0003_192_256.bmpp_0003_192_288.bmpp_0003_192_320.bmpp_0003_288_288.bmpp_0003_320_256.bmpp_0003_320_288.bmpp_0003_320_320.bmpp_0004_128_256.bmpp_0004_128_288.bmpp_0004_160_224.bmpp_0004_160_256.bmpp_0004_160_288.bmpp_0004_160_320.bmpp_0004_192_224.bmpp_0004_192_256.bmpp_0004_192_288.bmpp_0004_192_320.bmpp_0004_224_256.bmpp_0004_224_288.bmpp_0004_288_256.bmpp_0004_288_288.bmpp_0004_320_224.bmpp_0004_320_256.bmpp_0004_320_288.bmpp_0004_320_320.bmpp_0004_352_256.bmpp_0004_352_288.bmpp_0005_128_256.bmpp_0005_128_288.bmpp_0005_160_224.bmpp_0005_160_256.bmpp_0005_160_288.bmpp_0005_160_320.bmpp_0005_192_224.bmpp_0005_192_256.bmpp_0005_192_288.bmpp_0005_192_320.bmpp_0005_224_256.bmpp_0005_224_288.bmpp_0005_288_288.bmpp_0005_288_320.bmpp_0005_320_224.bmpp_0005_320_256.bmpp_0005_320_288.bmpp_0005_320_320.bmpp_0005_352_256.bmpp_0005_352_288.bmpp_0005_352_320.bmpp_0006_128_224.bmpp_0006_128_256.bmpp_0006_128_288.bmpp_0006_128_320.bmpp_0006_160_224.bmpp_0006_160_256.bmpp_0006_160_288.bmpp_0006_160_320.bmpp_0006_160_352.bmpp_0006_192_224.bmpp_0006_192_256.bmpp_0006_192_288.bmpp_0006_192_320.bmpp_0006_192_352.bmpp_0006_224_256.bmpp_0006_224_288.bmpp_0006_320_224.bmpp_0006_320_256.bmpp_0006_320_288.bmpp_0006_320_320.bmpp_0006_320_352.bmpp_0006_352_224.bmpp_0006_352_256.bmpp_0006_352_288.bmpp_0006_352_320.bmpp_0007_128_224.bmpp_0007_128_256.bmpp_0007_128_288.bmpp_0007_128_320.bmpp_0007_160_192.bmpp_0007_160_224.bmpp_0007_160_256.bmpp_0007_160_288.bmpp_0007_160_320.bmpp_0007_160_352.bmpp_0007_192_192.bmpp_0007_192_224.bmpp_0007_192_256.bmpp_0007_192_288.bmpp_0007_192_320.bmpp_0007_192_352.bmpp_0007_224_288.bmpp_0007_288_192.bmpp_0007_320_192.bmpp_0007_320_224.bmpp_0007_320_256.bmpp_0007_320_288.bmpp_0007_320_320.bmpp_0007_320_352.bmpp_0007_352_224.bmpp_0007_352_256.bmpp_0007_352_288.bmpp_0007_352_320.bmpp_0008_128_224.bmpp_0008_128_256.bmpp_0008_128_288.bmpp_0008_128_320.bmpp_0008_160_192.bmpp_0008_160_224.bmpp_0008_160_256.bmpp_0008_160_288.bmpp_0008_160_320.bmpp_0008_160_352.bmpp_0008_192_192.bmpp_0008_192_224.bmpp_0008_192_256.bmpp_0008_192_288.bmpp_0008_192_320.bmpp_0008_192_352.bmpp_0008_224_192.bmpp_0008_224_288.bmpp_0008_288_192.bmpp_0008_320_192.bmpp_0008_320_224.bmpp_0008_320_256.bmpp_0008_320_288.bmpp_0008_320_320.bmpp_0008_320_352.bmpp_0008_352_192.bmpp_0008_352_224.bmpp_0008_352_256.bmpp_0008_352_288.bmpp_0008_352_320.bmpp_0008_352_352.bmpp_0008_384_256.bmpp_0008_384_288.bmpp_0009_128_192.bmpp_0009_128_224.bmpp_0009_128_256.bmpp_0009_128_288.bmpp_0009_128_320.bmpp_0009_160_192.bmpp_0009_160_224.bmpp_0009_160_256.bmpp_0009_160_288.bmpp_0009_160_320.bmpp_0009_160_352.bmpp_0009_192_192.bmpp_0009_192_224.bmpp_0009_192_256.bmpp_0009_192_288.bmpp_0009_192_320.bmpp_0009_192_352.bmpp_0009_224_192.bmpp_0009_224_288.bmpp_0009_288_192.bmpp_0009_320_192.bmpp_0009_320_224.bmpp_0009_320_256.bmpp_0009_320_288.bmpp_0009_320_320.bmpp_0009_320_352.bmpp_0009_352_192.bmpp_0009_352_224.bmpp_0009_352_256.bmpp_0009_352_288.bmpp_0009_352_320.bmpp_0009_352_352.bmpp_0009_384_256.bmpp_0009_384_288.bmpp_0010_128_192.bmpp_0010_128_224.bmpp_0010_128_256.bmpp_0010_128_288.bmpp_0010_128_320.bmpp_0010_160_192.bmpp_0010_160_224.bmpp_0010_160_256.bmpp_0010_160_288.bmpp_0010_160_320.bmpp_0010_160_352.bmpp_0010_192_192.bmpp_0010_192_224.bmpp_0010_192_256.bmpp_0010_192_288.bmpp_0010_192_320.bmpp_0010_192_352.bmpp_0010_224_192.bmpp_0010_224_288.bmpp_0010_320_192.bmpp_0010_320_224.bmpp_0010_320_256.bmpp_0010_320_288.bmpp_0010_320_320.bmpp_0010_320_352.bmpp_0010_352_192.bmpp_0010_352_224.bmpp_0010_352_256.bmpp_0010_352_288.bmpp_0010_352_320.bmpp_0010_352_352.bmpp_0010_384_224.bmpp_0010_384_256.bmpp_0010_384_288.bmpp_0011_128_192.bmpp_0011_128_224.bmpp_0011_128_256.bmpp_0011_128_288.bmpp_0011_128_320.bmpp_0011_128_352.bmpp_0011_160_192.bmpp_0011_160_224.bmpp_0011_160_256.bmpp_0011_160_288.bmpp_0011_160_320.bmpp_0011_160_352.bmpp_0011_192_192.bmpp_0011_192_224.bmpp_0011_192_288.bmpp_0011_192_320.bmpp_0011_192_352.bmpp_0011_224_288.bmpp_0011_320_160.bmpp_0011_320_192.bmpp_0011_320_224.bmpp_0011_320_288.bmpp_0011_320_320.bmpp_0011_320_352.bmpp_0011_352_192.bmpp_0011_352_224.bmpp_0011_352_256.bmpp_0011_352_288.bmpp_0011_352_320.bmpp_0011_352_352.bmpp_0011_384_224.bmpp_0011_384_256.bmpp_0011_384_288.bmpp_0011_96_256.bmp\x00p_0012_128_192.bmpp_0012_128_224.bmpp_0012_128_256.bmpp_0012_128_288.bmpp_0012_128_320.bmpp_0012_128_352.bmpp_0012_160_192.bmpp_0012_160_224.bmpp_0012_160_256.bmpp_0012_160_288.bmpp_0012_160_320.bmpp_0012_160_352.bmpp_0012_192_192.bmpp_0012_192_224.bmpp_0012_192_288.bmpp_0012_192_320.bmpp_0012_192_352.bmpp_0012_224_288.bmpp_0012_288_160.bmpp_0012_320_160.bmpp_0012_320_192.bmpp_0012_320_224.bmpp_0012_320_256.bmpp_0012_320_288.bmpp_0012_320_320.bmpp_0012_320_352.bmpp_0012_352_192.bmpp_0012_352_224.bmpp_0012_352_256.bmpp_0012_352_288.bmpp_0012_352_320.bmpp_0012_352_352.bmpp_0012_384_224.bmpp_0012_384_256.bmpp_0012_384_288.bmpp_0012_96_256.bmp\x00p_0013_128_192.bmpp_0013_128_224.bmpp_0013_128_256.bmpp_0013_128_288.bmpp_0013_128_320.bmpp_0013_128_352.bmpp_0013_160_160.bmpp_0013_160_192.bmpp_0013_160_224.bmpp_0013_160_256.bmpp_0013_160_288.bmpp_0013_160_320.bmpp_0013_160_352.bmpp_0013_192_192.bmpp_0013_192_224.bmpp_0013_192_288.bmpp_0013_192_320.bmpp_0013_192_352.bmpp_0013_224_288.bmpp_0013_320_160.bmpp_0013_320_192.bmpp_0013_320_224.bmpp_0013_320_256.bmpp_0013_320_288.bmpp_0013_320_320.bmpp_0013_320_352.bmpp_0013_352_192.bmpp_0013_352_224.bmpp_0013_352_256.bmpp_0013_352_288.bmpp_0013_352_320.bmpp_0013_352_352.bmpp_0013_384_224.bmpp_0013_384_256.bmpp_0013_384_288.bmpp_0013_384_320.bmpp_0013_96_224.bmp\x00p_0013_96_256.bmp\x00p_0013_96_288.bmp\x00p_0014_128_192.bmpp_0014_128_224.bmpp_0014_128_256.bmpp_0014_128_288.bmpp_0014_128_320.bmpp_0014_128_352.bmpp_0014_160_192.bmpp_0014_160_224.bmpp_0014_160_256.bmpp_0014_160_288.bmpp_0014_160_320.bmpp_0014_160_352.bmpp_0014_192_192.bmpp_0014_192_224.bmpp_0014_192_288.bmpp_0014_192_320.bmpp_0014_192_352.bmpp_0014_224_288.bmpp_0014_320_160.bmpp_0014_320_256.bmpp_0014_320_288.bmpp_0014_320_320.bmpp_0014_320_352.bmpp_0014_352_192.bmpp_0014_352_224.bmpp_0014_352_256.bmpp_0014_352_288.bmpp_0014_352_320.bmpp_0014_352_352.bmpp_0014_384_192.bmpp_0014_384_224.bmpp_0014_384_256.bmpp_0014_384_288.bmpp_0014_384_320.bmpp_0014_96_224.bmp\x00p_0014_96_256.bmp\x00p_0014_96_288.bmp\x00p_0015_128_192.bmpp_0015_128_224.bmpp_0015_128_256.bmpp_0015_128_288.bmpp_0015_128_320.bmpp_0015_128_352.bmpp_0015_160_160.bmpp_0015_160_192.bmpp_0015_160_224.bmpp_0015_160_256.bmpp_0015_160_288.bmpp_0015_160_320.bmpp_0015_160_352.bmpp_0015_192_192.bmpp_0015_192_224.bmpp_0015_192_256.bmpp_0015_192_288.bmpp_0015_192_320.bmpp_0015_192_352.bmpp_0015_224_288.bmpp_0015_320_160.bmpp_0015_320_256.bmpp_0015_320_288.bmpp_0015_320_320.bmpp_0015_320_352.bmpp_0015_352_160.bmpp_0015_352_192.bmpp_0015_352_224.bmpp_0015_352_256.bmpp_0015_352_288.bmpp_0015_352_320.bmpp_0015_352_352.bmpp_0015_384_192.bmpp_0015_384_224.bmpp_0015_384_256.bmpp_0015_384_288.bmpp_0015_384_320.bmpp_0015_96_224.bmp\x00p_0015_96_256.bmp\x00p_0015_96_288.bmp\x00p_0016_128_192.bmpp_0016_128_224.bmpp_0016_128_256.bmpp_0016_128_288.bmpp_0016_128_320.bmpp_0016_128_352.bmpp_0016_160_160.bmpp_0016_160_192.bmpp_0016_160_224.bmpp_0016_160_256.bmpp_0016_160_288.bmpp_0016_160_320.bmpp_0016_160_352.bmpp_0016_192_192.bmpp_0016_192_224.bmpp_0016_192_256.bmpp_0016_192_288.bmpp_0016_192_320.bmpp_0016_224_288.bmpp_0016_320_288.bmpp_0016_320_320.bmpp_0016_320_352.bmpp_0016_352_160.bmpp_0016_352_192.bmpp_0016_352_224.bmpp_0016_352_256.bmpp_0016_352_288.bmpp_0016_352_320.bmpp_0016_352_352.bmpp_0016_384_192.bmpp_0016_384_224.bmpp_0016_384_256.bmpp_0016_384_288.bmpp_0016_384_320.bmpp_0016_96_224.bmp\x00p_0016_96_256.bmp\x00p_0016_96_288.bmp\x00p_0016_96_320.bmp\x00p_0017_128_192.bmpp_0017_128_224.bmpp_0017_128_256.bmpp_0017_128_288.bmpp_0017_128_320.bmpp_0017_128_352.bmpp_0017_160_192.bmpp_0017_160_224.bmpp_0017_160_256.bmpp_0017_160_288.bmpp_0017_160_320.bmpp_0017_160_352.bmpp_0017_192_192.bmpp_0017_192_224.bmpp_0017_192_256.bmpp_0017_192_288.bmpp_0017_192_320.bmpp_0017_224_288.bmpp_0017_320_288.bmpp_0017_320_320.bmpp_0017_320_352.bmpp_0017_352_160.bmpp_0017_352_256.bmpp_0017_352_288.bmpp_0017_352_320.bmpp_0017_352_352.bmpp_0017_384_192.bmpp_0017_384_224.bmpp_0017_384_256.bmpp_0017_384_288.bmpp_0017_384_320.bmpp_0017_96_224.bmp\x00p_0017_96_256.bmp\x00p_0017_96_288.bmp\x00p_0017_96_320.bmp\x00p_0018_128_192.bmpp_0018_128_224.bmpp_0018_128_256.bmpp_0018_128_288.bmpp_0018_128_320.bmpp_0018_128_352.bmpp_0018_160_160.bmpp_0018_160_192.bmpp_0018_160_224.bmpp_0018_160_256.bmpp_0018_160_288.bmpp_0018_160_320.bmpp_0018_160_352.bmpp_0018_192_192.bmpp_0018_192_224.bmpp_0018_192_256.bmpp_0018_192_288.bmpp_0018_192_320.bmpp_0018_224_288.bmpp_0018_320_288.bmpp_0018_320_320.bmpp_0018_320_352.bmpp_0018_352_256.bmpp_0018_352_288.bmpp_0018_352_320.bmpp_0018_352_352.bmpp_0018_384_192.bmpp_0018_384_224.bmpp_0018_384_256.bmpp_0018_384_288.bmpp_0018_384_320.bmpp_0018_96_224.bmp\x00p_0018_96_256.bmp\x00p_0018_96_288.bmp\x00p_0018_96_320.bmp\x00p_0019_128_192.bmpp_0019_128_224.bmpp_0019_128_256.bmpp_0019_128_288.bmpp_0019_128_320.bmpp_0019_128_352.bmpp_0019_160_192.bmpp_0019_160_224.bmpp_0019_160_256.bmpp_0019_160_288.bmpp_0019_160_320.bmpp_0019_160_352.bmpp_0019_192_256.bmpp_0019_192_288.bmpp_0019_192_320.bmpp_0019_320_288.bmpp_0019_320_320.bmpp_0019_320_352.bmpp_0019_352_256.bmpp_0019_352_288.bmpp_0019_352_320.bmpp_0019_352_352.bmpp_0019_384_192.bmpp_0019_384_224.bmpp_0019_384_256.bmpp_0019_384_288.bmpp_0019_384_320.bmpp_0019_96_224.bmp\x00p_0019_96_256.bmp\x00p_0019_96_288.bmp\x00p_0019_96_320.bmp\x00p_0020_128_192.bmpp_0020_128_224.bmpp_0020_128_256.bmpp_0020_128_288.bmpp_0020_128_320.bmpp_0020_128_352.bmpp_0020_160_192.bmpp_0020_160_224.bmpp_0020_160_256.bmpp_0020_160_288.bmpp_0020_160_320.bmpp_0020_160_352.bmpp_0020_192_256.bmpp_0020_192_288.bmpp_0020_192_320.bmpp_0020_320_288.bmpp_0020_320_320.bmpp_0020_320_352.bmpp_0020_352_256.bmpp_0020_352_288.bmpp_0020_352_320.bmpp_0020_352_352.bmpp_0020_384_192.bmpp_0020_384_224.bmpp_0020_384_256.bmpp_0020_384_288.bmpp_0020_384_320.bmpp_0020_96_224.bmp\x00p_0020_96_256.bmp\x00p_0020_96_288.bmp\x00p_0020_96_320.bmp\x00p_0021_128_256.bmpp_0021_128_288.bmpp_0021_128_320.bmpp_0021_128_352.bmpp_0021_160_256.bmpp_0021_160_288.bmpp_0021_160_320.bmpp_0021_160_352.bmpp_0021_192_256.bmpp_0021_192_288.bmpp_0021_192_320.bmpp_0021_224_256.bmpp_0021_320_288.bmpp_0021_320_320.bmpp_0021_320_352.bmpp_0021_352_256.bmpp_0021_352_288.bmpp_0021_352_320.bmpp_0021_352_352.bmpp_0021_384_192.bmpp_0021_384_224.bmpp_0021_384_256.bmpp_0021_384_288.bmpp_0021_384_320.bmpp_0021_96_192.bmp\x00p_0021_96_224.bmp\x00p_0021_96_256.bmp\x00p_0021_96_288.bmp\x00p_0021_96_320.bmp\x00p_0022_128_288.bmpp_0022_128_320.bmpp_0022_128_352.bmpp_0022_160_288.bmpp_0022_160_320.bmpp_0022_160_352.bmpp_0022_192_288.bmpp_0022_192_320.bmpp_0022_224_256.bmpp_0022_320_224.bmpp_0022_320_256.bmpp_0022_320_288.bmpp_0022_320_320.bmpp_0022_320_352.bmpp_0022_352_224.bmpp_0022_352_256.bmpp_0022_352_288.bmpp_0022_352_320.bmpp_0022_352_352.bmpp_0022_384_224.bmpp_0022_384_256.bmpp_0022_384_288.bmpp_0022_384_320.bmpp_0022_96_192.bmp\x00p_0022_96_288.bmp\x00p_0022_96_320.bmp\x00p_0023_128_320.bmpp_0023_128_352.bmpp_0023_160_320.bmpp_0023_160_352.bmpp_0023_192_288.bmpp_0023_192_320.bmpp_0023_320_288.bmpp_0023_320_320.bmpp_0023_320_352.bmpp_0023_352_288.bmpp_0023_352_320.bmpp_0023_352_352.bmpp_0023_384_224.bmpp_0023_384_256.bmpp_0023_384_288.bmpp_0023_384_320.bmpp_0023_96_320.bmp\x00p_0024_384_320.bmp'
tb.