cnumpy.core.multiarray
_reconstruct
p1
(cnumpy
ndarray
p2
(I0
tS'b'
tRp3
(I1
(I338
tcnumpy
dtype
p4
(S'S18'
I0
I1
tRp5
(I3
S'|'
NNNI18
I1
I0
tbI00
S'p_0001_160_256.bmpp_0002_128_256.bmpp_0002_128_288.bmpp_0002_160_256.bmpp_0002_160_288.bmpp_0002_192_256.bmpp_0002_320_256.bmpp_0002_320_288.bmpp_0003_128_224.bmpp_0003_128_256.bmpp_0003_128_288.bmpp_0003_160_224.bmpp_0003_160_256.bmpp_0003_160_288.bmpp_0003_160_320.bmpp_0003_192_256.bmpp_0003_320_256.bmpp_0003_320_288.bmpp_0003_352_256.bmpp_0003_352_288.bmpp_0004_128_224.bmpp_0004_128_256.bmpp_0004_128_288.bmpp_0004_128_320.bmpp_0004_160_224.bmpp_0004_160_256.bmpp_0004_160_288.bmpp_0004_160_320.bmpp_0004_192_256.bmpp_0004_192_288.bmpp_0004_288_320.bmpp_0004_320_256.bmpp_0004_320_288.bmpp_0004_320_320.bmpp_0004_352_256.bmpp_0004_352_288.bmpp_0004_96_256.bmp\x00p_0005_128_192.bmpp_0005_128_224.bmpp_0005_128_256.bmpp_0005_128_288.bmpp_0005_128_320.bmpp_0005_160_192.bmpp_0005_160_224.bmpp_0005_160_256.bmpp_0005_160_288.bmpp_0005_160_320.bmpp_0005_192_256.bmpp_0005_192_288.bmpp_0005_320_288.bmpp_0005_320_320.bmpp_0005_352_256.bmpp_0005_352_288.bmpp_0005_96_256.bmp\x00p_0005_96_288.bmp\x00p_0006_128_192.bmpp_0006_128_224.bmpp_0006_128_256.bmpp_0006_128_288.bmpp_0006_128_320.bmpp_0006_160_192.bmpp_0006_160_224.bmpp_0006_160_256.bmpp_0006_160_288.bmpp_0006_160_320.bmpp_0006_192_192.bmpp_0006_192_288.bmpp_0006_320_288.bmpp_0006_320_320.bmpp_0006_320_352.bmpp_0006_352_256.bmpp_0006_352_288.bmpp_0006_352_320.bmpp_0006_96_224.bmp\x00p_0006_96_256.bmp\x00p_0006_96_288.bmp\x00p_0007_128_192.bmpp_0007_128_224.bmpp_0007_128_256.bmpp_0007_128_288.bmpp_0007_128_320.bmpp_0007_128_352.bmpp_0007_160_192.bmpp_0007_160_224.bmpp_0007_160_256.bmpp_0007_160_288.bmpp_0007_160_320.bmpp_0007_160_352.bmpp_0007_192_192.bmpp_0007_192_288.bmpp_0007_320_352.bmpp_0007_352_288.bmpp_0007_352_320.bmpp_0007_96_224.bmp\x00p_0007_96_256.bmp\x00p_0007_96_288.bmp\x00p_0008_128_192.bmpp_0008_128_224.bmpp_0008_128_256.bmpp_0008_128_288.bmpp_0008_128_320.bmpp_0008_128_352.bmpp_0008_160_160.bmpp_0008_160_192.bmpp_0008_160_224.bmpp_0008_160_256.bmpp_0008_160_288.bmpp_0008_160_320.bmpp_0008_160_352.bmpp_0008_192_192.bmpp_0008_192_288.bmpp_0008_192_320.bmpp_0008_320_352.bmpp_0008_352_288.bmpp_0008_352_320.bmpp_0008_96_224.bmp\x00p_0008_96_256.bmp\x00p_0008_96_288.bmp\x00p_0008_96_320.bmp\x00p_0009_128_192.bmpp_0009_128_224.bmpp_0009_128_256.bmpp_0009_128_288.bmpp_0009_128_320.bmpp_0009_128_352.bmpp_0009_160_160.bmpp_0009_160_192.bmpp_0009_160_224.bmpp_0009_160_288.bmpp_0009_160_320.bmpp_0009_160_352.bmpp_0009_192_160.bmpp_0009_192_192.bmpp_0009_192_288.bmpp_0009_192_320.bmpp_0009_320_352.bmpp_0009_352_288.bmpp_0009_352_320.bmpp_0009_352_352.bmpp_0009_384_288.bmpp_0009_96_192.bmp\x00p_0009_96_224.bmp\x00p_0009_96_256.bmp\x00p_0009_96_288.bmp\x00p_0009_96_320.bmp\x00p_0010_128_160.bmpp_0010_128_192.bmpp_0010_128_224.bmpp_0010_128_256.bmpp_0010_128_288.bmpp_0010_128_320.bmpp_0010_128_352.bmpp_0010_160_160.bmpp_0010_160_192.bmpp_0010_160_224.bmpp_0010_160_288.bmpp_0010_160_320.bmpp_0010_160_352.bmpp_0010_192_160.bmpp_0010_192_192.bmpp_0010_192_288.bmpp_0010_192_320.bmpp_0010_224_160.bmpp_0010_320_352.bmpp_0010_352_320.bmpp_0010_352_352.bmpp_0010_96_192.bmp\x00p_0010_96_224.bmp\x00p_0010_96_256.bmp\x00p_0010_96_288.bmp\x00p_0010_96_320.bmp\x00p_0011_128_160.bmpp_0011_128_192.bmpp_0011_128_224.bmpp_0011_128_256.bmpp_0011_128_288.bmpp_0011_128_320.bmpp_0011_128_352.bmpp_0011_160_160.bmpp_0011_160_192.bmpp_0011_160_224.bmpp_0011_160_256.bmpp_0011_160_288.bmpp_0011_160_320.bmpp_0011_160_352.bmpp_0011_192_160.bmpp_0011_192_192.bmpp_0011_192_288.bmpp_0011_192_320.bmpp_0011_224_160.bmpp_0011_320_320.bmpp_0011_320_352.bmpp_0011_352_288.bmpp_0011_352_320.bmpp_0011_352_352.bmpp_0011_384_288.bmpp_0011_384_320.bmpp_0011_96_192.bmp\x00p_0011_96_224.bmp\x00p_0011_96_256.bmp\x00p_0011_96_288.bmp\x00p_0011_96_320.bmp\x00p_0012_128_160.bmpp_0012_128_192.bmpp_0012_128_224.bmpp_0012_128_256.bmpp_0012_128_288.bmpp_0012_128_320.bmpp_0012_128_352.bmpp_0012_160_160.bmpp_0012_160_192.bmpp_0012_160_224.bmpp_0012_160_256.bmpp_0012_160_288.bmpp_0012_160_320.bmpp_0012_160_352.bmpp_0012_192_160.bmpp_0012_192_288.bmpp_0012_192_320.bmpp_0012_224_160.bmpp_0012_320_320.bmpp_0012_320_352.bmpp_0012_352_288.bmpp_0012_352_320.bmpp_0012_352_352.bmpp_0012_384_288.bmpp_0012_384_320.bmpp_0012_96_192.bmp\x00p_0012_96_224.bmp\x00p_0012_96_256.bmp\x00p_0012_96_288.bmp\x00p_0012_96_320.bmp\x00p_0013_128_160.bmpp_0013_128_192.bmpp_0013_128_224.bmpp_0013_128_256.bmpp_0013_128_288.bmpp_0013_128_320.bmpp_0013_128_352.bmpp_0013_160_160.bmpp_0013_160_192.bmpp_0013_160_224.bmpp_0013_160_256.bmpp_0013_160_288.bmpp_0013_160_320.bmpp_0013_160_352.bmpp_0013_192_160.bmpp_0013_192_192.bmpp_0013_192_288.bmpp_0013_192_320.bmpp_0013_224_160.bmpp_0013_320_320.bmpp_0013_320_352.bmpp_0013_352_320.bmpp_0013_352_352.bmpp_0013_384_320.bmpp_0013_96_192.bmp\x00p_0013_96_224.bmp\x00p_0013_96_256.bmp\x00p_0013_96_288.bmp\x00p_0013_96_320.bmp\x00p_0013_96_352.bmp\x00p_0014_128_160.bmpp_0014_128_192.bmpp_0014_128_224.bmpp_0014_128_256.bmpp_0014_128_288.bmpp_0014_128_320.bmpp_0014_128_352.bmpp_0014_160_160.bmpp_0014_160_192.bmpp_0014_160_224.bmpp_0014_160_256.bmpp_0014_160_288.bmpp_0014_160_320.bmpp_0014_160_352.bmpp_0014_192_160.bmpp_0014_192_192.bmpp_0014_192_224.bmpp_0014_192_256.bmpp_0014_192_288.bmpp_0014_192_320.bmpp_0014_224_160.bmpp_0014_320_320.bmpp_0014_320_352.bmpp_0014_352_320.bmpp_0014_352_352.bmpp_0014_384_320.bmpp_0014_96_192.bmp\x00p_0014_96_224.bmp\x00p_0014_96_256.bmp\x00p_0014_96_288.bmp\x00p_0014_96_320.bmp\x00p_0014_96_352.bmp\x00p_0015_128_160.bmpp_0015_128_288.bmpp_0015_128_320.bmpp_0015_128_352.bmpp_0015_160_160.bmpp_0015_160_288.bmpp_0015_160_320.bmpp_0015_160_352.bmpp_0015_192_160.bmpp_0015_192_288.bmpp_0015_192_320.bmpp_0015_224_288.bmpp_0015_320_352.bmpp_0015_352_352.bmpp_0015_96_256.bmp\x00p_0015_96_288.bmp\x00p_0015_96_320.bmp\x00p_0015_96_352.bmp\x00p_0016_128_160.bmpp_0016_128_320.bmpp_0016_128_352.bmpp_0016_160_160.bmpp_0016_160_320.bmpp_0016_160_352.bmpp_0016_192_288.bmpp_0016_192_320.bmpp_0016_224_288.bmpp_0016_320_352.bmpp_0016_64_256.bmp\x00p_0016_96_320.bmp\x00p_0016_96_352.bmp\x00p_0017_128_352.bmpp_0017_160_320.bmpp_0017_160_352.bmpp_0017_192_320.bmpp_0017_224_288.bmpp_0017_96_320.bmp\x00p_0017_96_352.bmp\x00p_0018_128_352.bmpp_0018_160_352.bmpp_0018_192_320.bmpp_0018_96_352.bmp\x00p_0019_192_352.bmpp_0019_96_352.bmp\x00'
tb.